Certificate:
    Data:
        Version: 3 (0x2)
        Serial Number: 1 (0x1)
    Signature Algorithm: sha256WithRSAEncryption
        Issuer: CN=devcert
        Validity
            Not Before: Apr 27 20:05:32 2020 GMT
            Not After : Jul 31 20:05:32 2022 GMT
        Subject: CN=localhost
        Subject Public Key Info:
            Public Key Algorithm: rsaEncryption
                Public-Key: (2048 bit)
                Modulus:
                    00:f0:5c:c1:9c:02:33:2c:02:94:af:c4:74:22:31:
                    3b:97:bf:9b:cb:cb:78:3c:e6:ff:3a:1c:a1:b7:cd:
                    da:8d:f2:b6:99:43:10:50:98:28:59:fa:cb:62:c5:
                    d9:b4:28:9a:90:c3:c5:5c:ad:09:34:72:09:c9:ed:
                    9b:26:e0:f4:86:ca:c2:df:7b:4f:19:57:29:5e:aa:
                    04:5b:2f:23:09:40:38:0d:78:6f:02:c3:8c:0b:f8:
                    a1:63:9e:e5:47:68:ad:e1:e4:d0:a4:6d:98:c1:9a:
                    9d:85:35:af:15:49:fa:c2:89:68:a2:5e:89:1b:64:
                    44:29:11:8f:74:39:b2:5f:f9:1a:6f:1d:50:77:5d:
                    ad:5b:e0:71:62:3d:99:6f:5b:49:11:97:b5:21:60:
                    66:a5:f7:00:77:89:b2:9d:32:de:9d:14:98:7a:73:
                    09:8a:d2:0f:7a:26:89:ff:77:f1:1c:ba:40:02:73:
                    97:bf:90:15:ba:35:4d:ac:1e:13:14:1a:17:18:01:
                    ba:fc:95:33:6a:39:44:96:f4:fd:5d:3b:da:e2:90:
                    cf:b3:98:55:c6:e1:05:a7:8b:5a:fc:5a:50:77:97:
                    43:a1:60:20:ee:e9:45:57:23:a5:61:1b:79:05:cf:
                    05:27:84:56:a0:4f:6f:6e:e2:b1:70:55:7e:b5:68:
                    81:67
                Exponent: 65537 (0x10001)
        X509v3 extensions:
            X509v3 Basic Constraints: critical
                CA:FALSE
            X509v3 Subject Key Identifier: 
                74:8F:87:47:D5:CF:40:F4:45:5E:04:90:EF:15:52:D9:30:7D:50:D6
            X509v3 Authority Key Identifier: 
                keyid:DC:82:05:E1:A4:87:A2:67:DF:B4:F3:87:11:B9:6F:81:EF:EA:DD:BC
                DirName:/CN=devcert
                serial:AA:05:A3:7E:37:8C:94:2B

            X509v3 Key Usage: critical
                Digital Signature, Key Encipherment
            X509v3 Extended Key Usage: 
                TLS Web Server Authentication
            X509v3 Subject Alternative Name: 
                DNS:localhost, DNS:*.localhost
    Signature Algorithm: sha256WithRSAEncryption
         5f:47:a7:ac:08:db:77:87:3e:dc:05:fe:4f:6a:89:76:39:7c:
         c0:8f:24:c5:5e:0b:66:b1:dd:eb:9b:7b:dd:0e:33:65:b8:66:
         a2:41:be:ec:b8:58:59:e5:b6:c9:a0:8b:80:eb:a2:b4:89:22:
         eb:3f:52:1b:29:4b:05:d2:c5:ef:63:27:5d:1b:e2:b1:18:5c:
         31:61:21:11:aa:72:3a:90:af:4b:ef:f8:21:dc:c1:e6:86:ab:
         6c:22:4c:af:e8:b2:56:88:71:e4:dd:eb:d3:88:92:36:d1:c2:
         2d:cb:d5:f6:2c:33:fe:a0:9e:6b:25:6a:95:f8:f3:66:e0:1b:
         0b:ff:e3:6c:39:54:c8:3f:73:1d:0e:e7:c3:07:98:53:b7:f4:
         19:65:0e:d4:39:bb:5c:95:33:0d:46:47:49:5a:69:68:5b:b6:
         c9:6c:8b:74:92:58:dc:76:5f:10:45:a7:f8:69:15:37:a2:af:
         e8:23:ca:6c:3e:7c:46:ae:9a:d7:5f:60:8b:e2:bd:a3:8c:0f:
         59:13:05:bd:4e:3c:82:36:e0:b8:dc:9d:16:e4:38:6b:d4:dc:
         af:fe:0c:2a:33:e3:ec:4f:cf:c2:b3:19:8e:9a:d2:4d:54:b8:
         23:1a:44:21:22:53:1c:9a:3c:ef:9b:95:86:b7:1d:4d:94:3b:
         f4:68:9e:85
-----BEGIN CERTIFICATE-----
MIIDXjCCAkagAwIBAgIBATANBgkqhkiG9w0BAQsFADASMRAwDgYDVQQDDAdkZXZj
ZXJ0MB4XDTIwMDQyNzIwMDUzMloXDTIyMDczMTIwMDUzMlowFDESMBAGA1UEAwwJ
bG9jYWxob3N0MIIBIjANBgkqhkiG9w0BAQEFAAOCAQ8AMIIBCgKCAQEA8FzBnAIz
LAKUr8R0IjE7l7+by8t4POb/Ohyht83ajfK2mUMQUJgoWfrLYsXZtCiakMPFXK0J
NHIJye2bJuD0hsrC33tPGVcpXqoEWy8jCUA4DXhvAsOMC/ihY57lR2it4eTQpG2Y
wZqdhTWvFUn6wolool6JG2REKRGPdDmyX/kabx1Qd12tW+BxYj2Zb1tJEZe1IWBm
pfcAd4mynTLenRSYenMJitIPeiaJ/3fxHLpAAnOXv5AVujVNrB4TFBoXGAG6/JUz
ajlElvT9XTva4pDPs5hVxuEFp4ta/FpQd5dDoWAg7ulFVyOlYRt5Bc8FJ4RWoE9v
buKxcFV+tWiBZwIDAQABo4G8MIG5MAwGA1UdEwEB/wQCMAAwHQYDVR0OBBYEFHSP
h0fVz0D0RV4EkO8VUtkwfVDWMEIGA1UdIwQ7MDmAFNyCBeGkh6Jn37TzhxG5b4Hv
6t28oRakFDASMRAwDgYDVQQDDAdkZXZjZXJ0ggkAqgWjfjeMlCswDgYDVR0PAQH/
BAQDAgWgMBMGA1UdJQQMMAoGCCsGAQUFBwMBMCEGA1UdEQQaMBiCCWxvY2FsaG9z
dIILKi5sb2NhbGhvc3QwDQYJKoZIhvcNAQELBQADggEBAF9Hp6wI23eHPtwF/k9q
iXY5fMCPJMVeC2ax3eube90OM2W4ZqJBvuy4WFnltsmgi4DrorSJIus/UhspSwXS
xe9jJ10b4rEYXDFhIRGqcjqQr0vv+CHcweaGq2wiTK/oslaIceTd69OIkjbRwi3L
1fYsM/6gnmslapX482bgGwv/42w5VMg/cx0O58MHmFO39BllDtQ5u1yVMw1GR0la
aWhbtslsi3SSWNx2XxBFp/hpFTeir+gjymw+fEaumtdfYIvivaOMD1kTBb1OPII2
4LjcnRbkOGvU3K/+DCoz4+xPz8KzGY6a0k1UuCMaRCEiUxyaPO+blYa3HU2UO/Ro
noU=
-----END CERTIFICATE-----
